target datalayout = "e-m:e-p270:32:32-p271:32:32-p272:64:64-i64:64-i128:128-f80:128-n8:16:32:64-S128"
target triple = "x86_64-pc-linux-gnu"

%struct.GetBitContext = type { ptr, ptr, i32, i32, i32 }
%struct.AVCodecContext = type { ptr, i32, i32, ptr, i32, i32, ptr, ptr, ptr, i64, i32, i32, ptr, i32, %struct.AVRational, %struct.AVRational, %struct.AVRational, i32, i32, i32, i32, i32, %struct.AVRational, i32, i32, i32, i32, i32, i32, i32, i32, i32, i32, i32, ptr, ptr, i32, float, float, float, float, float, float, float, float, float, i32, i32, i32, i32, i32, i32, i32, i32, i32, i32, i32, i32, ptr, ptr, ptr, i32, i32, i32, i32, i32, i32, i32, i32, i32, i32, %struct.AVChannelLayout, i32, i32, i32, i32, i32, i32, i32, i32, ptr, i32, i32, i32, float, float, i32, i32, i32, i32, i32, ptr, i64, i64, float, float, i32, i32, ptr, ptr, i32, i32, i32, i32, i32, ptr, ptr, ptr, ptr, i32, i32, [8 x i64], i32, i32, i32, i32, i32, i32, i32, ptr, ptr, i32, i32, i32, i32, i32, i32, i32, i32, i32, i32, ptr, ptr, i32, i32, ptr, ptr, ptr, ptr, i32, i32, i64, i32, i32, i64, ptr, i64, ptr, i32, ptr, i32 }
%struct.AVRational = type { i32, i32 }
%struct.AVChannelLayout = type { i32, i32, %union.anon.0, ptr }
%union.anon.0 = type { i64 }
%struct.MPCContext = type { %struct.BswapDSPContext, %struct.MPADSPContext, i32, i32, i32, i32, i32, i32, i32, [2 x [32 x i32]], [32 x %struct.Band], [2 x [1152 x i32]], i32, i32, ptr, i32, %struct.AVLFG, i32, [4 x i8], [2 x [1024 x i32]], [2 x i32], [8 x i8], [2 x [36 x [32 x i32]]] }
%struct.BswapDSPContext = type { ptr, ptr }
%struct.MPADSPContext = type { ptr, ptr, ptr, ptr, ptr, ptr }
%struct.Band = type { i32, [2 x i32], [2 x i32], [2 x [3 x i32]], [2 x i32] }
%struct.AVLFG = type { [64 x i32], i32 }

@mpc8_decode_init.init_static_once = internal global i32 0, align 4
@.str.2 = private unnamed_addr constant [32 x i8] c"Too small extradata size (%i)!\0A\00", align 1
@.str.3 = private unnamed_addr constant [22 x i8] c"maxbands %d too high\0A\00", align 1
@.str.4 = private unnamed_addr constant [21 x i8] c"Multichannel MPC SV8\00", align 1

; Function Attrs: alwaysinline nounwind willreturn memory(none) uwtable
define internal i32 @av_bswap32(i32 noundef %0) #6 {
  %2 = alloca i32, align 4
  store i32 %0, ptr %2, align 4, !tbaa !38
  %3 = load i32, ptr %2, align 4, !tbaa !38
  %4 = shl i32 %3, 8
  %5 = and i32 %4, 65280
  %6 = load i32, ptr %2, align 4, !tbaa !38
  %7 = lshr i32 %6, 8
  %8 = and i32 %7, 255
  %9 = or i32 %5, %8
  %10 = shl i32 %9, 16
  %11 = load i32, ptr %2, align 4, !tbaa !38
  %12 = lshr i32 %11, 16
  %13 = shl i32 %12, 8
  %14 = and i32 %13, 65280
  %15 = load i32, ptr %2, align 4, !tbaa !38
  %16 = lshr i32 %15, 16
  %17 = lshr i32 %16, 8
  %18 = and i32 %17, 255
  %19 = or i32 %14, %18
  %20 = or i32 %10, %19
  ret i32 %20
}

; Function Attrs: inlinehint nounwind uwtable
define internal i32 @get_bits1(ptr noundef %0) #5 {
  %2 = alloca ptr, align 8
  %3 = alloca i32, align 4
  %4 = alloca i8, align 1
  store ptr %0, ptr %2, align 8, !tbaa !51
  call void @llvm.lifetime.start.p0(i64 4, ptr %3) #9
  %5 = load ptr, ptr %2, align 8, !tbaa !51
  %6 = getelementptr inbounds nuw %struct.GetBitContext, ptr %5, i32 0, i32 2
  %7 = load i32, ptr %6, align 8, !tbaa !99
  store i32 %7, ptr %3, align 4, !tbaa !38
  call void @llvm.lifetime.start.p0(i64 1, ptr %4) #9
  %8 = load ptr, ptr %2, align 8, !tbaa !51
  %9 = getelementptr inbounds nuw %struct.GetBitContext, ptr %8, i32 0, i32 0
  %10 = load ptr, ptr %9, align 8, !tbaa !94
  %11 = load i32, ptr %3, align 4, !tbaa !38
  %12 = lshr i32 %11, 3
  %13 = zext i32 %12 to i64
  %14 = getelementptr inbounds nuw i8, ptr %10, i64 %13
  %15 = load i8, ptr %14, align 1, !tbaa !78
  store i8 %15, ptr %4, align 1, !tbaa !78
  %16 = load i32, ptr %3, align 4, !tbaa !38
  %17 = and i32 %16, 7
  %18 = load i8, ptr %4, align 1, !tbaa !78
  %19 = zext i8 %18 to i32
  %20 = shl i32 %19, %17
  %21 = trunc i32 %20 to i8
  store i8 %21, ptr %4, align 1, !tbaa !78
  %22 = load i8, ptr %4, align 1, !tbaa !78
  %23 = zext i8 %22 to i32
  %24 = ashr i32 %23, 7
  %25 = trunc i32 %24 to i8
  store i8 %25, ptr %4, align 1, !tbaa !78
  %26 = load ptr, ptr %2, align 8, !tbaa !51
  %27 = getelementptr inbounds nuw %struct.GetBitContext, ptr %26, i32 0, i32 2
  %28 = load i32, ptr %27, align 8, !tbaa !99
  %29 = load ptr, ptr %2, align 8, !tbaa !51
  %30 = getelementptr inbounds nuw %struct.GetBitContext, ptr %29, i32 0, i32 4
  %31 = load i32, ptr %30, align 8, !tbaa !97
  %32 = icmp slt i32 %28, %31
  br i1 %32, label %33, label %36

33:                                               ; preds = %1
  %34 = load i32, ptr %3, align 4, !tbaa !38
  %35 = add i32 %34, 1
  store i32 %35, ptr %3, align 4, !tbaa !38
  br label %36

36:                                               ; preds = %33, %1
  %37 = load i32, ptr %3, align 4, !tbaa !38
  %38 = load ptr, ptr %2, align 8, !tbaa !51
  %39 = getelementptr inbounds nuw %struct.GetBitContext, ptr %38, i32 0, i32 2
  store i32 %37, ptr %39, align 8, !tbaa !99
  %40 = load i8, ptr %4, align 1, !tbaa !78
  %41 = zext i8 %40 to i32
  call void @llvm.lifetime.end.p0(i64 1, ptr %4) #9
  call void @llvm.lifetime.end.p0(i64 4, ptr %3) #9
  ret i32 %41
}

; Function Attrs: inlinehint nounwind uwtable
define internal i32 @get_bits(ptr noundef %0, i32 noundef %1) #5 {
  %3 = alloca ptr, align 8
  %4 = alloca i32, align 4
  %5 = alloca i32, align 4
  %6 = alloca i32, align 4
  %7 = alloca i32, align 4
  %8 = alloca i32, align 4
  store ptr %0, ptr %3, align 8, !tbaa !51
  store i32 %1, ptr %4, align 4, !tbaa !38
  call void @llvm.lifetime.start.p0(i64 4, ptr %5) #9
  call void @llvm.lifetime.start.p0(i64 4, ptr %6) #9
  %9 = load ptr, ptr %3, align 8, !tbaa !51
  %10 = getelementptr inbounds nuw %struct.GetBitContext, ptr %9, i32 0, i32 2
  %11 = load i32, ptr %10, align 8, !tbaa !99
  store i32 %11, ptr %6, align 4, !tbaa !38
  call void @llvm.lifetime.start.p0(i64 4, ptr %7) #9
  call void @llvm.lifetime.start.p0(i64 4, ptr %8) #9
  %12 = load ptr, ptr %3, align 8, !tbaa !51
  %13 = getelementptr inbounds nuw %struct.GetBitContext, ptr %12, i32 0, i32 4
  %14 = load i32, ptr %13, align 8, !tbaa !97
  store i32 %14, ptr %8, align 4, !tbaa !38
  %15 = load ptr, ptr %3, align 8, !tbaa !51
  %16 = getelementptr inbounds nuw %struct.GetBitContext, ptr %15, i32 0, i32 0
  %17 = load ptr, ptr %16, align 8, !tbaa !94
  %18 = load i32, ptr %6, align 4, !tbaa !38
  %19 = lshr i32 %18, 3
  %20 = zext i32 %19 to i64
  %21 = getelementptr inbounds nuw i8, ptr %17, i64 %20
  %22 = load i32, ptr %21, align 1, !tbaa !78
  %23 = call i32 @av_bswap32(i32 noundef %22) #10
  %24 = load i32, ptr %6, align 4, !tbaa !38
  %25 = and i32 %24, 7
  %26 = shl i32 %23, %25
  %27 = lshr i32 %26, 0
  store i32 %27, ptr %7, align 4, !tbaa !38
  %28 = load i32, ptr %7, align 4, !tbaa !38
  %29 = load i32, ptr %4, align 4, !tbaa !38
  %30 = sub nsw i32 32, %29
  %31 = lshr i32 %28, %30
  store i32 %31, ptr %5, align 4, !tbaa !38
  %32 = load i32, ptr %8, align 4, !tbaa !38
  %33 = load i32, ptr %6, align 4, !tbaa !38
  %34 = load i32, ptr %4, align 4, !tbaa !38
  %35 = add i32 %33, %34
  %36 = icmp ugt i32 %32, %35
  br i1 %36, label %37, label %41

37:                                               ; preds = %2
  %38 = load i32, ptr %6, align 4, !tbaa !38
  %39 = load i32, ptr %4, align 4, !tbaa !38
  %40 = add i32 %38, %39
  br label %43

41:                                               ; preds = %2
  %42 = load i32, ptr %8, align 4, !tbaa !38
  br label %43

43:                                               ; preds = %41, %37
  %44 = phi i32 [ %40, %37 ], [ %42, %41 ]
  store i32 %44, ptr %6, align 4, !tbaa !38
  %45 = load i32, ptr %6, align 4, !tbaa !38
  %46 = load ptr, ptr %3, align 8, !tbaa !51
  %47 = getelementptr inbounds nuw %struct.GetBitContext, ptr %46, i32 0, i32 2
  store i32 %45, ptr %47, align 8, !tbaa !99
  %48 = load i32, ptr %5, align 4, !tbaa !38
  call void @llvm.lifetime.end.p0(i64 4, ptr %8) #9
  call void @llvm.lifetime.end.p0(i64 4, ptr %7) #9
  call void @llvm.lifetime.end.p0(i64 4, ptr %6) #9
  call void @llvm.lifetime.end.p0(i64 4, ptr %5) #9
  ret i32 %48
}

; Function Attrs: inlinehint nounwind uwtable
define internal void @skip_bits(ptr noundef %0, i32 noundef %1) #5 {
  %3 = alloca ptr, align 8
  %4 = alloca i32, align 4
  %5 = alloca i32, align 4
  %6 = alloca i32, align 4
  store ptr %0, ptr %3, align 8, !tbaa !51
  store i32 %1, ptr %4, align 4, !tbaa !38
  call void @llvm.lifetime.start.p0(i64 4, ptr %5) #9
  %7 = load ptr, ptr %3, align 8, !tbaa !51
  %8 = getelementptr inbounds nuw %struct.GetBitContext, ptr %7, i32 0, i32 2
  %9 = load i32, ptr %8, align 8, !tbaa !99
  store i32 %9, ptr %5, align 4, !tbaa !38
  call void @llvm.lifetime.start.p0(i64 4, ptr %6) #9
  %10 = load ptr, ptr %3, align 8, !tbaa !51
  %11 = getelementptr inbounds nuw %struct.GetBitContext, ptr %10, i32 0, i32 4
  %12 = load i32, ptr %11, align 8, !tbaa !97
  store i32 %12, ptr %6, align 4, !tbaa !38
  %13 = load i32, ptr %6, align 4, !tbaa !38
  %14 = load i32, ptr %5, align 4, !tbaa !38
  %15 = load i32, ptr %4, align 4, !tbaa !38
  %16 = add i32 %14, %15
  %17 = icmp ugt i32 %13, %16
  br i1 %17, label %18, label %22

18:                                               ; preds = %2
  %19 = load i32, ptr %5, align 4, !tbaa !38
  %20 = load i32, ptr %4, align 4, !tbaa !38
  %21 = add i32 %19, %20
  br label %24

22:                                               ; preds = %2
  %23 = load i32, ptr %6, align 4, !tbaa !38
  br label %24

24:                                               ; preds = %22, %18
  %25 = phi i32 [ %21, %18 ], [ %23, %22 ]
  store i32 %25, ptr %5, align 4, !tbaa !38
  %26 = load i32, ptr %5, align 4, !tbaa !38
  %27 = load ptr, ptr %3, align 8, !tbaa !51
  %28 = getelementptr inbounds nuw %struct.GetBitContext, ptr %27, i32 0, i32 2
  store i32 %26, ptr %28, align 8, !tbaa !99
  call void @llvm.lifetime.end.p0(i64 4, ptr %6) #9
  call void @llvm.lifetime.end.p0(i64 4, ptr %5) #9
  ret void
}

; Function Attrs: inlinehint nounwind uwtable
define internal i32 @init_get_bits(ptr noundef %0, ptr noundef %1, i32 noundef %2) #5 {
  %4 = alloca ptr, align 8
  %5 = alloca ptr, align 8
  %6 = alloca i32, align 4
  %7 = alloca i32, align 4
  %8 = alloca i32, align 4
  store ptr %0, ptr %4, align 8, !tbaa !51
  store ptr %1, ptr %5, align 8, !tbaa !49
  store i32 %2, ptr %6, align 4, !tbaa !38
  call void @llvm.lifetime.start.p0(i64 4, ptr %7) #9
  call void @llvm.lifetime.start.p0(i64 4, ptr %8) #9
  store i32 0, ptr %8, align 4, !tbaa !38
  %9 = load i32, ptr %6, align 4, !tbaa !38
  %10 = icmp sge i32 %9, 2147483135
  br i1 %10, label %17, label %11

11:                                               ; preds = %3
  %12 = load i32, ptr %6, align 4, !tbaa !38
  %13 = icmp slt i32 %12, 0
  br i1 %13, label %17, label %14

14:                                               ; preds = %11
  %15 = load ptr, ptr %5, align 8, !tbaa !49
  %16 = icmp ne ptr %15, null
  br i1 %16, label %18, label %17

17:                                               ; preds = %14, %11, %3
  store i32 0, ptr %6, align 4, !tbaa !38
  store ptr null, ptr %5, align 8, !tbaa !49
  store i32 -1094995529, ptr %8, align 4, !tbaa !38
  br label %18

18:                                               ; preds = %17, %14
  %19 = load i32, ptr %6, align 4, !tbaa !38
  %20 = add nsw i32 %19, 7
  %21 = ashr i32 %20, 3
  store i32 %21, ptr %7, align 4, !tbaa !38
  %22 = load ptr, ptr %5, align 8, !tbaa !49
  %23 = load ptr, ptr %4, align 8, !tbaa !51
  %24 = getelementptr inbounds nuw %struct.GetBitContext, ptr %23, i32 0, i32 0
  store ptr %22, ptr %24, align 8, !tbaa !94
  %25 = load i32, ptr %6, align 4, !tbaa !38
  %26 = load ptr, ptr %4, align 8, !tbaa !51
  %27 = getelementptr inbounds nuw %struct.GetBitContext, ptr %26, i32 0, i32 3
  store i32 %25, ptr %27, align 4, !tbaa !96
  %28 = load i32, ptr %6, align 4, !tbaa !38
  %29 = add nsw i32 %28, 8
  %30 = load ptr, ptr %4, align 8, !tbaa !51
  %31 = getelementptr inbounds nuw %struct.GetBitContext, ptr %30, i32 0, i32 4
  store i32 %29, ptr %31, align 8, !tbaa !97
  %32 = load ptr, ptr %5, align 8, !tbaa !49
  %33 = load i32, ptr %7, align 4, !tbaa !38
  %34 = sext i32 %33 to i64
  %35 = getelementptr inbounds i8, ptr %32, i64 %34
  %36 = load ptr, ptr %4, align 8, !tbaa !51
  %37 = getelementptr inbounds nuw %struct.GetBitContext, ptr %36, i32 0, i32 1
  store ptr %35, ptr %37, align 8, !tbaa !98
  %38 = load ptr, ptr %4, align 8, !tbaa !51
  %39 = getelementptr inbounds nuw %struct.GetBitContext, ptr %38, i32 0, i32 2
  store i32 0, ptr %39, align 8, !tbaa !99
  %40 = load i32, ptr %8, align 4, !tbaa !38
  call void @llvm.lifetime.end.p0(i64 4, ptr %8) #9
  call void @llvm.lifetime.end.p0(i64 4, ptr %7) #9
  ret i32 %40
}

; Function Attrs: cold nounwind optsize uwtable
define internal i32 @mpc8_decode_init(ptr noundef %0) #0 {
  %2 = alloca i32, align 4
  %3 = alloca ptr, align 8
  %4 = alloca ptr, align 8
  %5 = alloca %struct.GetBitContext, align 8
  %6 = alloca i32, align 4
  %7 = alloca i32, align 4
  store ptr %0, ptr %3, align 8, !tbaa !4
  call void @llvm.lifetime.start.p0(i64 8, ptr %4) #9
  %8 = load ptr, ptr %3, align 8, !tbaa !4
  %9 = getelementptr inbounds nuw %struct.AVCodecContext, ptr %8, i32 0, i32 6
  %10 = load ptr, ptr %9, align 8, !tbaa !9
  store ptr %10, ptr %4, align 8, !tbaa !29
  call void @llvm.lifetime.start.p0(i64 32, ptr %5) #9
  call void @llvm.lifetime.start.p0(i64 4, ptr %6) #9
  %11 = load ptr, ptr %3, align 8, !tbaa !4
  %12 = getelementptr inbounds nuw %struct.AVCodecContext, ptr %11, i32 0, i32 13
  %13 = load i32, ptr %12, align 8, !tbaa !31
  %14 = icmp slt i32 %13, 2
  br i1 %14, label %15, label %20

15:                                               ; preds = %1
  %16 = load ptr, ptr %3, align 8, !tbaa !4
  %17 = load ptr, ptr %3, align 8, !tbaa !4
  %18 = getelementptr inbounds nuw %struct.AVCodecContext, ptr %17, i32 0, i32 13
  %19 = load i32, ptr %18, align 8, !tbaa !31
  call void (ptr, i32, ptr, ...) @av_log(ptr noundef %16, i32 noundef 16, ptr noundef @.str.2, i32 noundef %19)
  store i32 -1, ptr %2, align 4
  store i32 1, ptr %7, align 4
  br label %69

20:                                               ; preds = %1
  %21 = load ptr, ptr %4, align 8, !tbaa !29
  %22 = getelementptr inbounds nuw %struct.MPCContext, ptr %21, i32 0, i32 9
  %23 = getelementptr inbounds [2 x [32 x i32]], ptr %22, i64 0, i64 0
  call void @llvm.memset.p0.i64(ptr align 4 %23, i8 0, i64 256, i1 false)
  %24 = load ptr, ptr %4, align 8, !tbaa !29
  %25 = getelementptr inbounds nuw %struct.MPCContext, ptr %24, i32 0, i32 16
  call void @av_lfg_init(ptr noundef %25, i32 noundef -559038737)
  %26 = load ptr, ptr %4, align 8, !tbaa !29
  %27 = getelementptr inbounds nuw %struct.MPCContext, ptr %26, i32 0, i32 1
  call void @ff_mpadsp_init(ptr noundef %27)
  %28 = load ptr, ptr %3, align 8, !tbaa !4
  %29 = getelementptr inbounds nuw %struct.AVCodecContext, ptr %28, i32 0, i32 12
  %30 = load ptr, ptr %29, align 8, !tbaa !32
  %31 = call i32 @init_get_bits(ptr noundef %5, ptr noundef %30, i32 noundef 16)
  call void @skip_bits(ptr noundef %5, i32 noundef 3)
  %32 = call i32 @get_bits(ptr noundef %5, i32 noundef 5)
  %33 = add i32 %32, 1
  %34 = load ptr, ptr %4, align 8, !tbaa !29
  %35 = getelementptr inbounds nuw %struct.MPCContext, ptr %34, i32 0, i32 6
  store i32 %33, ptr %35, align 16, !tbaa !33
  %36 = load ptr, ptr %4, align 8, !tbaa !29
  %37 = getelementptr inbounds nuw %struct.MPCContext, ptr %36, i32 0, i32 6
  %38 = load i32, ptr %37, align 16, !tbaa !33
  %39 = icmp sge i32 %38, 32
  br i1 %39, label %40, label %45

40:                                               ; preds = %20
  %41 = load ptr, ptr %3, align 8, !tbaa !4
  %42 = load ptr, ptr %4, align 8, !tbaa !29
  %43 = getelementptr inbounds nuw %struct.MPCContext, ptr %42, i32 0, i32 6
  %44 = load i32, ptr %43, align 16, !tbaa !33
  call void (ptr, i32, ptr, ...) @av_log(ptr noundef %41, i32 noundef 16, ptr noundef @.str.3, i32 noundef %44)
  store i32 -1094995529, ptr %2, align 4
  store i32 1, ptr %7, align 4
  br label %69

45:                                               ; preds = %20
  %46 = call i32 @get_bits(ptr noundef %5, i32 noundef 4)
  %47 = add i32 %46, 1
  store i32 %47, ptr %6, align 4, !tbaa !38
  %48 = load i32, ptr %6, align 4, !tbaa !38
  %49 = icmp sgt i32 %48, 2
  br i1 %49, label %50, label %52

50:                                               ; preds = %45
  %51 = load ptr, ptr %3, align 8, !tbaa !4
  call void (ptr, ptr, ...) @avpriv_request_sample(ptr noundef %51, ptr noundef @.str.4)
  store i32 -1163346256, ptr %2, align 4
  store i32 1, ptr %7, align 4
  br label %69

52:                                               ; preds = %45
  %53 = call i32 @get_bits1(ptr noundef %5)
  %54 = load ptr, ptr %4, align 8, !tbaa !29
  %55 = getelementptr inbounds nuw %struct.MPCContext, ptr %54, i32 0, i32 3
  store i32 %53, ptr %55, align 4, !tbaa !39
  %56 = call i32 @get_bits(ptr noundef %5, i32 noundef 3)
  %57 = mul i32 %56, 2
  %58 = shl i32 1, %57
  %59 = load ptr, ptr %4, align 8, !tbaa !29
  %60 = getelementptr inbounds nuw %struct.MPCContext, ptr %59, i32 0, i32 13
  store i32 %58, ptr %60, align 16, !tbaa !40
  %61 = load ptr, ptr %3, align 8, !tbaa !4
  %62 = getelementptr inbounds nuw %struct.AVCodecContext, ptr %61, i32 0, i32 70
  store i32 6, ptr %62, align 4, !tbaa !41
  %63 = load ptr, ptr %3, align 8, !tbaa !4
  %64 = getelementptr inbounds nuw %struct.AVCodecContext, ptr %63, i32 0, i32 71
  call void @av_channel_layout_uninit(ptr noundef %64)
  %65 = load ptr, ptr %3, align 8, !tbaa !4
  %66 = getelementptr inbounds nuw %struct.AVCodecContext, ptr %65, i32 0, i32 71
  %67 = load i32, ptr %6, align 4, !tbaa !38
  call void @av_channel_layout_default(ptr noundef %66, i32 noundef %67)
  %68 = call i32 @pthread_once(ptr noundef @mpc8_decode_init.init_static_once, ptr noundef @mpc8_init_static)
  store i32 0, ptr %2, align 4
  store i32 1, ptr %7, align 4
  br label %69

69:                                               ; preds = %52, %50, %40, %15
  call void @llvm.lifetime.end.p0(i64 4, ptr %6) #9
  call void @llvm.lifetime.end.p0(i64 32, ptr %5) #9
  call void @llvm.lifetime.end.p0(i64 8, ptr %4) #9
  %70 = load i32, ptr %2, align 4
  ret i32 %70
}