; Function Attrs: cold nounwind optsize uwtable
define internal range(i32 -1163346256, 1) i32 @mpc8_decode_init(ptr noundef %0) #0 {
  %2 = getelementptr inbounds nuw i8, ptr %0, i64 32
  %3 = load ptr, ptr %2, align 8, !tbaa !4
  %4 = getelementptr inbounds nuw i8, ptr %0, i64 80
  %5 = load i32, ptr %4, align 8, !tbaa !27
  %6 = icmp slt i32 %5, 2
  br i1 %6, label %7, label %8

7:                                                ; preds = %1
  tail call void (ptr, i32, ptr, ...) @av_log(ptr noundef nonnull %0, i32 noundef 16, ptr noundef nonnull @.str.2, i32 noundef %5) #8
  br label %44

8:                                                ; preds = %1
  %9 = getelementptr inbounds nuw i8, ptr %3, i64 92
  tail call void @llvm.memset.p0.i64(ptr noundef nonnull align 4 dereferenceable(256) %9, i8 0, i64 256, i1 false)
  %10 = getelementptr inbounds nuw i8, ptr %3, i64 11252
  tail call void @av_lfg_init(ptr noundef nonnull %10, i32 noundef -559038737) #8
  %11 = getelementptr inbounds nuw i8, ptr %3, i64 16
  tail call void @ff_mpadsp_init(ptr noundef nonnull %11) #8
  %12 = getelementptr inbounds nuw i8, ptr %0, i64 72
  %13 = load ptr, ptr %12, align 8, !tbaa !28
  %.not = icmp ne ptr %13, null
  %14 = load i32, ptr %13, align 1, !tbaa !29
  %15 = and i32 %14, 31
  %16 = add nuw nsw i32 %15, 1
  %17 = getelementptr inbounds nuw i8, ptr %3, i64 80
  store i32 %16, ptr %17, align 16, !tbaa !30
  %18 = icmp eq i32 %15, 31
  br i1 %18, label %19, label %20

19:                                               ; preds = %8
  tail call void (ptr, i32, ptr, ...) @av_log(ptr noundef nonnull %0, i32 noundef 16, ptr noundef nonnull @.str.3, i32 noundef %16) #8
  br label %44

20:                                               ; preds = %8
  %21 = getelementptr inbounds nuw i8, ptr %13, i64 1
  %22 = load i32, ptr %21, align 1
  %23 = lshr i32 %22, 4
  %24 = and i32 %23, 15
  %25 = icmp samesign ugt i32 %24, 1
  br i1 %25, label %26, label %27

26:                                               ; preds = %20
  tail call void (ptr, ptr, ...) @avpriv_request_sample(ptr noundef nonnull %0, ptr noundef nonnull @.str.4) #8
  br label %44

27:                                               ; preds = %20
  %28 = add nuw nsw i32 %24, 1
  %29 = zext i1 %.not to i32
  %30 = lshr i32 %22, 3
  %31 = and i32 %30, 1
  %32 = getelementptr inbounds nuw i8, ptr %3, i64 68
  store i32 %31, ptr %32, align 4, !tbaa !35
  %33 = load i32, ptr %21, align 1, !tbaa !29
  %34 = tail call i32 @llvm.bswap.i32(i32 %33)
  %35 = or disjoint i32 %29, 4
  %36 = shl i32 %34, %35
  %37 = lshr i32 %36, 28
  %38 = and i32 %37, 14
  %39 = shl nuw nsw i32 1, %38
  %40 = getelementptr inbounds nuw i8, ptr %3, i64 11232
  store i32 %39, ptr %40, align 16, !tbaa !36
  %41 = getelementptr inbounds nuw i8, ptr %0, i64 348
  store i32 6, ptr %41, align 4, !tbaa !37
  %42 = getelementptr inbounds nuw i8, ptr %0, i64 352
  tail call void @av_channel_layout_uninit(ptr noundef nonnull %42) #8
  tail call void @av_channel_layout_default(ptr noundef nonnull %42, i32 noundef %28) #8
  %43 = tail call i32 @pthread_once(ptr noundef nonnull @mpc8_decode_init.init_static_once, ptr noundef nonnull @mpc8_init_static) #8
  br label %44

44:                                               ; preds = %27, %26, %19, %7
  %.0 = phi i32 [ -1, %7 ], [ -1094995529, %19 ], [ -1163346256, %26 ], [ 0, %27 ]
  ret i32 %.0
}